; Function Attrs: mustprogress uwtable
define dso_local void @_ZN4Luau12Substitution10foundDirtyEPKNS_11TypePackVarE(ptr noundef nonnull align 8 dereferenceable(472) %0, ptr noundef %1) unnamed_addr #2 align 2 {
  %3 = alloca ptr, align 8
  %4 = getelementptr inbounds nuw i8, ptr %0, i64 144
  %5 = load ptr, ptr %4, align 8, !tbaa !61
  %6 = tail call noundef ptr @_ZNK4Luau6TxnLog6followEPKNS_11TypePackVarE(ptr noundef nonnull align 8 dereferenceable(128) %5, ptr noundef %1)
  store ptr %6, ptr %3, align 8, !tbaa !33
  %7 = getelementptr inbounds nuw i8, ptr %0, i64 272
  %8 = getelementptr inbounds nuw i8, ptr %0, i64 288
  %9 = load i64, ptr %8, align 8, !tbaa !226
  %10 = icmp eq i64 %9, 0
  br i1 %10, label %.loopexit, label %11

11:                                               ; preds = %2
  %12 = getelementptr inbounds nuw i8, ptr %0, i64 296
  %13 = load ptr, ptr %12, align 8, !tbaa !33
  %14 = icmp eq ptr %6, %13
  br i1 %14, label %.loopexit, label %15

15:                                               ; preds = %11
  %16 = getelementptr inbounds nuw i8, ptr %0, i64 280
  %17 = load i64, ptr %16, align 8, !tbaa !217
  %18 = add i64 %17, -1
  %19 = ptrtoint ptr %6 to i64
  %20 = lshr i64 %19, 4
  %21 = lshr i64 %19, 9
  %22 = xor i64 %20, %21
  %23 = load ptr, ptr %7, align 8, !tbaa !218
  br label %24

24:                                               ; preds = %30, %15
  %.pn.i.i = phi i64 [ %22, %15 ], [ %32, %30 ]
  %.02028.i.i = phi i64 [ 0, %15 ], [ %31, %30 ]
  %.02129.i.i = and i64 %.pn.i.i, %18
  %25 = getelementptr inbounds nuw %"struct.std::pair.157", ptr %23, i64 %.02129.i.i
  %26 = load ptr, ptr %25, align 8, !tbaa !33
  %27 = icmp eq ptr %26, %6
  br i1 %27, label %_ZNK4Luau12DenseHashMapIPKNS_11TypePackVarES3_NS_16DenseHashPointerESt8equal_toIS3_EE8containsERKS3_.exit, label %28

28:                                               ; preds = %24
  %29 = icmp eq ptr %26, %13
  br i1 %29, label %.loopexit, label %30

30:                                               ; preds = %28
  %31 = add i64 %.02028.i.i, 1
  %32 = add i64 %31, %.02129.i.i
  %.not.i.i = icmp ugt i64 %31, %18
  br i1 %.not.i.i, label %.loopexit, label %24, !llvm.loop !227

.loopexit:                                        ; preds = %28, %30, %2, %11
  %33 = load ptr, ptr %0, align 8, !tbaa !8
  %34 = getelementptr inbounds nuw i8, ptr %33, i64 40
  %35 = load ptr, ptr %34, align 8
  %36 = tail call noundef zeroext i1 %35(ptr noundef nonnull align 8 dereferenceable(224) %0, ptr noundef %6)
  br i1 %36, label %37, label %42

37:                                               ; preds = %.loopexit
  %38 = load ptr, ptr %0, align 8, !tbaa !8
  %39 = getelementptr inbounds nuw i8, ptr %38, i64 72
  %40 = load ptr, ptr %39, align 8
  %41 = tail call noundef ptr %40(ptr noundef nonnull align 8 dereferenceable(472) %0, ptr noundef %6)
  br label %_ZNK4Luau12DenseHashMapIPKNS_11TypePackVarES3_NS_16DenseHashPointerESt8equal_toIS3_EE8containsERKS3_.exit.sink.split

42:                                               ; preds = %.loopexit
  %43 = tail call noundef ptr @_ZN4Luau12Substitution5cloneEPKNS_11TypePackVarE(ptr noundef nonnull align 8 dereferenceable(472) %0, ptr noundef %6)
  br label %_ZNK4Luau12DenseHashMapIPKNS_11TypePackVarES3_NS_16DenseHashPointerESt8equal_toIS3_EE8containsERKS3_.exit.sink.split

_ZNK4Luau12DenseHashMapIPKNS_11TypePackVarES3_NS_16DenseHashPointerESt8equal_toIS3_EE8containsERKS3_.exit.sink.split: ; preds = %37, %42
  %.sink3 = phi ptr [ %43, %42 ], [ %41, %37 ]
  %44 = tail call noundef ptr @_ZN4Luau6followEPKNS_11TypePackVarE(ptr noundef %.sink3)
  %45 = call noundef nonnull align 8 dereferenceable(8) ptr @_ZN4Luau12DenseHashMapIPKNS_11TypePackVarES3_NS_16DenseHashPointerESt8equal_toIS3_EEixERKS3_(ptr noundef nonnull align 8 dereferenceable(40) %7, ptr noundef nonnull align 8 dereferenceable(8) %3)
  store ptr %44, ptr %45, align 8, !tbaa !33
  br label %_ZNK4Luau12DenseHashMapIPKNS_11TypePackVarES3_NS_16DenseHashPointerESt8equal_toIS3_EE8containsERKS3_.exit

_ZNK4Luau12DenseHashMapIPKNS_11TypePackVarES3_NS_16DenseHashPointerESt8equal_toIS3_EE8containsERKS3_.exit: ; preds = %24, %_ZNK4Luau12DenseHashMapIPKNS_11TypePackVarES3_NS_16DenseHashPointerESt8equal_toIS3_EE8containsERKS3_.exit.sink.split
  ret void
}